(lp0
(lp1
F2.4940050025179517e-12
aF1.0
aF1.0
aF1.0
aF0.9999999403953552
aF0.9999999403953552
aF0.9999999403953552
aF0.9999999403953552
aF0.9999998807907104
aa(lp2
F0.0
aF1.0
aF1.0
aF1.0
aF1.0
aF1.0
aF1.0
aF0.9999999403953552
aF0.9999999403953552
aF0.9999998807907104
aa(lp3
F7.140954494389007e-13
aF1.0
aF1.0
aF1.0
aF1.0
aF1.0
aF1.0
aF1.0
aF1.0
aF0.9999999403953552
aa(lp4
F0.0
aF1.0
aF1.0
aF1.0
aF1.0
aa(lp5
F0.0
aF1.0
aF1.0
aF1.0
aF1.0
aa(lp6
F0.0
aF1.0
aF1.0
aF1.0
aF1.0
aF1.0000001192092896
aa(lp7
F1.4210854715202004e-12
aF1.0
aF1.0
aF1.0
aF1.0
aF1.0
aF1.0
aF1.0
aF1.0000001192092896
aa(lp8
F0.0
aF1.0
aF1.0
aF1.0
aF1.0
aF1.0
aF1.0
aa(lp9
F1.545430450278218e-12
aF1.0
aF0.9999999403953552
aF0.9999998211860657
aF0.9999997019767761
aF0.9999994039535522
aa(lp10
F7.140954494389007e-13
aF1.0
aF1.0
aF1.0
aF1.0
aF0.9999999403953552
aa(lp11
F0.0
aF1.0
aF1.0
aF1.0
aF1.0
aF1.0
aF1.0
aa(lp12
F0.0
aF1.0
aF1.0
aF1.0
aF1.0
aF1.0
aF1.0
aF0.9999999403953552
aa(lp13
F0.0
aF1.0
aF1.0
aF1.0
aF1.0
aF1.0
aF1.0
aF1.0
aa(lp14
F0.0
aF1.0
aF1.0
aF1.0
aF1.0
aF1.0
aa(lp15
F1.1155520951433573e-12
aF1.0
aF1.0
aF1.0
aF1.0
aF1.0
aF0.9999999403953552
aF0.9999998807907104
aF0.9999998211860657
aF0.9999997019767761
aa(lp16
F0.0
aF1.0
aF1.0
aF1.0
aF1.0
aF1.0
aF1.0
aF1.0
aF0.9999999403953552
aF0.9999998807907104
aa(lp17
F0.0
aF1.0
aF1.0
aF1.0
aa(lp18
F0.0
aF1.0
aF1.0
aF1.0
aa(lp19
F0.0
aF1.0
aF1.0
aF1.0
aa(lp20
F1.2767794132232666
aF0.3420242667198181
aF0.11241088062524796
aF0.03586222231388092
aa(lp21
F0.0
aF1.0
aF1.0
aa(lp22
F0.0
aF1.0
aF1.0
aF1.0
aF1.0
aa(lp23
F3.552713678800501e-13
aF1.0
aF1.0
aF1.0
aF0.9999999403953552
aF0.9999998807907104
aa(lp24
F0.0
aF1.0
aF1.0
aF1.0
aF1.0
aF1.0
aF1.0
aa(lp25
F0.0
aF1.0
aF1.0
aF1.0
aF1.0
aF1.0
aa(lp26
F3.552713678800501e-13
aF1.0
aF1.0
aF1.0
aF0.9999999403953552
aa(lp27
F0.0
aF1.0
aF1.0
aF1.0
aF1.0
aF1.0
aF1.0
aF1.0
aa(lp28
F0.0
aF1.0
aF1.0
aF1.0
aF1.0
aa(lp29
F0.0
aF1.0
aF1.0
aF1.0
aF0.9999999403953552
aF1.0
aF1.0
aF1.0
aF0.9999999403953552
aF0.9999998807907104
aa(lp30
F3.552713678800501e-13
aF1.0
aF1.0
aF1.0
aF1.0
aF1.0
aF1.0
aF1.0
aF0.9999999403953552
aa(lp31
F0.0
aF1.0
aF1.0
aF1.0
aF1.0
aF0.9999999403953552
aF0.9999998807907104
aa(lp32
F3.588240815588506e-13
aF1.0
aF1.0
aF1.0
aF1.0
aF1.0
aF1.0
aF1.0
aF1.0
aF0.9999999403953552
aa(lp33
F0.0
aF0.9999999403953552
aF0.9999999403953552
aF0.9999998807907104
aa(lp34
F0.0
aF1.0
aF1.0
aF1.0
aF1.0
aF1.0
aa(lp35
F1.4210854715202004e-12
aF1.0
aF1.0
aF1.0
aF1.0
aF1.0
aF1.0
aF1.0000001192092896
aa(lp36
F7.887024366937112e-13
aF1.0
aF0.9999999403953552
aF0.9999999403953552
aF0.9999998807907104
aF0.9999997615814209
aF0.9999995231628418
aa(lp37
F0.0
aF1.0
aF1.0
aa(lp38
F1.5027978861326119e-12
aF1.0
aF1.0
aF0.9999999403953552
aF0.9999999403953552
aF0.9999999403953552
aF0.9999998807907104
aF0.9999997615814209
aF0.9999995827674866
aa(lp39
F0.0
aF1.0
aF1.0
aF1.0
aF1.0
aF1.0
aF1.0
aF1.0
aF1.0
aa(lp40
F0.0
aF1.0
aF1.0
aF1.0
aF1.0000001192092896
aa(lp41
F0.0
aF1.0
aF1.0
aa(lp42
F0.0
aF1.0
aF1.0
aF1.0
aF1.0
aF1.0
aF1.0
aF1.0
aF1.0
aa(lp43
F0.0
aF1.0
aF1.0
aF1.0
aF1.0
aF1.0
aF1.0
aF1.0
aF1.0
aa(lp44
F0.04169462248682976
aF0.8059313893318176
aF0.6431756615638733
aa(lp45
F6.394884621840902e-13
aF0.9999997615814209
aF0.9999995231628418
aF0.9999990463256836
aa(lp46
F0.0
aF1.0
aF1.0
aa(lp47
F0.0
aF1.0
aF1.0
aF1.0
aF1.0
aF1.0
aF1.0
aa(lp48
F0.0
aF1.0
aF1.0
aF1.0
aa(lp49
F0.0
aF1.0
aF1.0
aa(lp50
F0.0
aF1.0
aF1.0
aF1.0
aF1.0
aF1.0
aF1.0
aF1.0
aa(lp51
F7.140954494389007e-13
aF1.0
aF1.0
aF1.0
aF1.0
aF1.0
aF1.0
aF0.9999999403953552
aF0.9999999403953552
aa(lp52
F0.0
aF1.0
aF1.0
aF1.0
aF1.0
aF1.0
aF1.0
aF1.0
aF1.0
aF1.0
aa(lp53
F0.0
aF0.9999999403953552
aF1.0
aF1.0
aF0.9999999403953552
aa(lp54
F7.140954494389007e-13
aF1.0
aF1.0
aF1.0
aF1.0
aF1.0
aF1.0
aF1.0
aF0.9999999403953552
aF0.9999999403953552
aa(lp55
F0.0
aF1.0
aF1.0
aF1.0
aF1.0
aF1.0
aa(lp56
F0.0
aF1.0
aF1.0
aF1.0
aF1.0
aa(lp57
F0.0
aF1.0
aF0.9999999403953552
aF0.9999998807907104
aa(lp58
F2.603783855192887e-11
aF1.0
aF1.0
aF1.0000001192092896
aF0.9999999403953552
aF1.0
aF1.0000001192092896
aF0.9999998807907104
aF0.9999997615814209
aF0.9999995231628418
aa(lp59
F0.0
aF1.0
aF1.0
aF1.0
aa(lp60
F0.0
aF1.0
aF1.0
aF1.0
aF1.0
aa(lp61
F7.140954494389007e-13
aF0.9999999403953552
aF1.0
aF1.0
aF1.0
aF1.0
aF1.0
aa(lp62
F0.0
aF1.0
aF1.0
aF1.0
aF1.0
aF1.0
aF1.0
aF1.0
aa(lp63
F0.0
aF1.0
aF1.0
aF1.0
aF1.0
aF1.0000001192092896
aF1.0000001192092896
aa(lp64
F0.0
aF1.0
aF1.0
aF1.0
aF1.0
aa(lp65
F2.8563817977556027e-12
aF1.0
aF1.0
aF1.0
aF1.0
aF1.0000001192092896
aF1.0000001192092896
aa(lp66
F0.0
aF1.0
aF1.0
aF1.0
aF1.0
aF1.0
aF1.0
aF1.0
aF1.0
aa(lp67
F0.0
aF1.0
aF1.0
aF1.0
aF1.0
aF1.0
aF1.0000001192092896
aa(lp68
F0.0
aF1.0
aF1.0
aF1.0
aF1.0
aF1.0
aF1.0
aF1.0
aF1.0000001192092896
aa(lp69
F0.0
aF1.0
aF1.0
aF1.0
aF1.0
aF1.0
aF1.0
aF1.0
aa(lp70
F0.0
aF1.0
aF1.0
aF1.0
aF1.0
aF1.0
aa(lp71
F1.0729195309977513e-12
aF1.0
aF1.0
aF1.0
aF1.0
aF1.0
aF0.9999999403953552
aF0.9999998807907104
aF0.9999998211860657
aa(lp72
F0.0
aF1.0
aF1.0
aF1.0
aF1.0
aF1.0
aF1.0
aF1.0
aF1.0
aa(lp73
F0.5124161839485168
aF0.2856598496437073
aF0.07698175311088562
aa(lp74
F0.0
aF1.0
aF1.0
aa(lp75
F0.0
aF1.0
aF1.0
aF0.9999999403953552
aa(lp76
F2.8563817977556027e-12
aF1.0
aF1.0
aF1.0
aF1.0
aF1.0
aF1.0
aF1.0000001192092896
aF1.000000238418579
aa(lp77
F0.0
aF1.0
aF1.0
aF1.0
aF1.0
aF0.9999999403953552
aF1.0
aF1.0
aF0.9999999403953552
aF0.9999999403953552
aa(lp78
F0.0
aF1.0
aF1.0
aF1.0
aF1.0
aF1.0
aF1.0
aF1.0
aa(lp79
F0.0
aF1.0
aF1.0
aF1.0
aF1.0
aF1.0
aF1.0
aF1.0
aa(lp80
F0.0
aF1.0
aF1.0
aa(lp81
F1.9532568454742432
aF0.4514811933040619
aF0.19519440829753876
aF0.019882094115018845
aF-0.005420174449682236
aa(lp82
F0.0
aF1.0
aF1.0
aF1.0
aa(lp83
F0.0
aF1.0
aF1.0
aF1.0
aF1.0
aF1.0
aa(lp84
F0.0
aF1.0
aF1.0
aF1.0
aF1.0
aF1.0
aF1.0
aF1.0
aa(lp85
F0.0
aF1.0
aF1.0
aF1.0
aF1.0
aF1.0
aa(lp86
F0.0
aF1.0
aF1.0
aF1.0
aF1.0
aF1.0
aF1.0
aF1.0
aF1.0
aF1.0
aa(lp87
F0.0
aF1.0
aF1.0
aa(lp88
F0.0
aF1.0
aF1.0
aF1.0
aF1.0
aF1.0
aF1.0
aF1.0
aF0.9999999403953552
aF0.9999999403953552
aa(lp89
F0.0
aF1.0
aF1.0
aa(lp90
F0.0
aF1.0
aF1.0
aF1.0
aF1.0
aF1.0
aF1.0
aF1.0
aa(lp91
F0.0
aF1.0
aF1.0
aF1.0
aF1.0
aa(lp92
F0.0
aF1.0
aF1.0
aF1.0
aF1.0
aF1.0
aa(lp93
F0.8116704225540161
aF0.547370195388794
aF0.28922680020332336
aF0.053517721593379974
aa(lp94
F0.0
aF1.0
aF1.0
aF1.0
aF1.0
aF1.0
aa(lp95
F0.0
aF1.0
aF1.0
aF1.0
aF1.0
aF1.0000001192092896
aa(lp96
F0.0
aF1.0
aF1.0
aF1.0
aF1.0
aF1.0
aF1.0
aa(lp97
F8.554934538551606e-12
aF1.0
aF1.0000001192092896
aF1.0
aF0.9999998807907104
aF0.9999997615814209
aa(lp98
F7.176481631177012e-13
aF1.0
aF1.0
aF0.9999999403953552
aF0.9999998807907104
aF0.9999998211860657
aa(lp99
F0.0
aF1.0
aF1.0
aF1.0
aa(lp100
F0.0
aF1.0
aF1.0
aF1.0
aF1.0
aF1.0
aa.